target datalayout = "e-m:e-p270:32:32-p271:32:32-p272:64:64-i64:64-i128:128-f80:128-n8:16:32:64-S128"
target triple = "x86_64-pc-linux-gnu"

%class.ErrorHandler = type <{ i32, i32, i8, i8, i8, i8, i8, i8, [2 x i8] }>
%struct.FileHeader = type { %struct.BlockHeader, i8, i32, i8, %union.anon, [2048 x i32], %class.Array, %class.RarTime, %class.RarTime, %class.RarTime, i64, i64, i64, %struct.HashValue, i32, i8, i8, i8, i8, i32, i8, [16 x i8], [16 x i8], i8, [8 x i8], i8, [32 x i8], i32, i8, i8, i8, i8, i64, i8, i8, i8, i32, i32, [2048 x i32], i8, i8, i8, i8, [256 x i8], [256 x i8], i32, i32 }
%struct.BlockHeader = type { %struct.BaseBlock, i32 }
%struct.BaseBlock = type { i32, i32, i32, i32, i8 }
%union.anon = type { i32 }
%class.Array = type { ptr, i64, i64, i64 }
%class.RarTime = type { i64 }
%struct.HashValue = type { i32, %union.anon.0 }
%union.anon.0 = type { i32, [28 x i8] }

@ErrHandler = external global %class.ErrorHandler, align 4

; Function Attrs: mustprogress uwtable
define linkonce_odr void @_ZN5ArrayIhE3AddEm(ptr noundef nonnull align 8 dereferenceable(32) %0, i64 noundef %1) #0 comdat align 2 {
  %3 = alloca ptr, align 8
  %4 = alloca i64, align 8
  %5 = alloca i64, align 8
  %6 = alloca i64, align 8
  %7 = alloca ptr, align 8
  store ptr %0, ptr %3, align 8
  store i64 %1, ptr %4, align 8
  %8 = load ptr, ptr %3, align 8
  %9 = load i64, ptr %4, align 8
  %10 = getelementptr inbounds %class.Array, ptr %8, i32 0, i32 1
  %11 = load i64, ptr %10, align 8
  %12 = add i64 %11, %9
  store i64 %12, ptr %10, align 8
  %13 = getelementptr inbounds %class.Array, ptr %8, i32 0, i32 1
  %14 = load i64, ptr %13, align 8
  %15 = getelementptr inbounds %class.Array, ptr %8, i32 0, i32 2
  %16 = load i64, ptr %15, align 8
  %17 = icmp ugt i64 %14, %16
  br i1 %17, label %18, label %63

18:                                               ; preds = %2
  %19 = getelementptr inbounds %class.Array, ptr %8, i32 0, i32 3
  %20 = load i64, ptr %19, align 8
  %21 = icmp ne i64 %20, 0
  br i1 %21, label %22, label %31

22:                                               ; preds = %18
  %23 = getelementptr inbounds %class.Array, ptr %8, i32 0, i32 1
  %24 = load i64, ptr %23, align 8
  %25 = getelementptr inbounds %class.Array, ptr %8, i32 0, i32 3
  %26 = load i64, ptr %25, align 8
  %27 = icmp ugt i64 %24, %26
  br i1 %27, label %28, label %31

28:                                               ; preds = %22
  %29 = getelementptr inbounds %class.Array, ptr %8, i32 0, i32 3
  %30 = load i64, ptr %29, align 8
  call void (ptr, ptr, ...) @_ZN12ErrorHandler13GeneralErrMsgEPKwz(ptr noundef nonnull align 4 dereferenceable(14) @ErrHandler, ptr noundef @.str, i64 noundef %30)
  call void @_ZN12ErrorHandler11MemoryErrorEv(ptr noundef nonnull align 4 dereferenceable(14) @ErrHandler)
  br label %31

31:                                               ; preds = %28, %22, %18
  %32 = getelementptr inbounds %class.Array, ptr %8, i32 0, i32 2
  %33 = load i64, ptr %32, align 8
  %34 = getelementptr inbounds %class.Array, ptr %8, i32 0, i32 2
  %35 = load i64, ptr %34, align 8
  %36 = udiv i64 %35, 4
  %37 = add i64 %33, %36
  %38 = add i64 %37, 32
  store i64 %38, ptr %5, align 8
  %39 = getelementptr inbounds %class.Array, ptr %8, i32 0, i32 1
  %40 = load i64, ptr %39, align 8
  %41 = load i64, ptr %5, align 8
  %42 = icmp ugt i64 %40, %41
  br i1 %42, label %43, label %46

43:                                               ; preds = %31
  %44 = getelementptr inbounds %class.Array, ptr %8, i32 0, i32 1
  %45 = load i64, ptr %44, align 8
  br label %48

46:                                               ; preds = %31
  %47 = load i64, ptr %5, align 8
  br label %48

48:                                               ; preds = %46, %43
  %49 = phi i64 [ %45, %43 ], [ %47, %46 ]
  store i64 %49, ptr %6, align 8
  %50 = getelementptr inbounds %class.Array, ptr %8, i32 0, i32 0
  %51 = load ptr, ptr %50, align 8
  %52 = load i64, ptr %6, align 8
  %53 = mul i64 %52, 1
  %54 = call ptr @realloc(ptr noundef %51, i64 noundef %53) #8
  store ptr %54, ptr %7, align 8
  %55 = load ptr, ptr %7, align 8
  %56 = icmp eq ptr %55, null
  br i1 %56, label %57, label %58

57:                                               ; preds = %48
  call void @_ZN12ErrorHandler11MemoryErrorEv(ptr noundef nonnull align 4 dereferenceable(14) @ErrHandler)
  br label %58

58:                                               ; preds = %57, %48
  %59 = load ptr, ptr %7, align 8
  %60 = getelementptr inbounds %class.Array, ptr %8, i32 0, i32 0
  store ptr %59, ptr %60, align 8
  %61 = load i64, ptr %6, align 8
  %62 = getelementptr inbounds %class.Array, ptr %8, i32 0, i32 2
  store i64 %61, ptr %62, align 8
  br label %63

63:                                               ; preds = %58, %2
  ret void
}

; Function Attrs: mustprogress nounwind uwtable
define linkonce_odr void @_ZN7RarTime5ResetEv(ptr noundef nonnull align 8 dereferenceable(8) %0) #1 comdat align 2 {
  %2 = alloca ptr, align 8
  store ptr %0, ptr %2, align 8
  %3 = load ptr, ptr %2, align 8
  %4 = getelementptr inbounds %class.RarTime, ptr %3, i32 0, i32 0
  store i64 0, ptr %4, align 8
  ret void
}

; Function Attrs: mustprogress nounwind uwtable
define linkonce_odr void @_ZN9BaseBlock5ResetEv(ptr noundef nonnull align 4 dereferenceable(20) %0) #1 comdat align 2 {
  %2 = alloca ptr, align 8
  store ptr %0, ptr %2, align 8
  %3 = load ptr, ptr %2, align 8
  %4 = getelementptr inbounds %struct.BaseBlock, ptr %3, i32 0, i32 4
  store i8 0, ptr %4, align 4
  ret void
}

; Function Attrs: mustprogress uwtable
define linkonce_odr void @_ZN5ArrayIhE5AllocEm(ptr noundef nonnull align 8 dereferenceable(32) %0, i64 noundef %1) #0 comdat align 2 {
  %3 = alloca ptr, align 8
  %4 = alloca i64, align 8
  store ptr %0, ptr %3, align 8
  store i64 %1, ptr %4, align 8
  %5 = load ptr, ptr %3, align 8
  %6 = load i64, ptr %4, align 8
  %7 = getelementptr inbounds %class.Array, ptr %5, i32 0, i32 2
  %8 = load i64, ptr %7, align 8
  %9 = icmp ugt i64 %6, %8
  br i1 %9, label %10, label %15

10:                                               ; preds = %2
  %11 = load i64, ptr %4, align 8
  %12 = getelementptr inbounds %class.Array, ptr %5, i32 0, i32 1
  %13 = load i64, ptr %12, align 8
  %14 = sub i64 %11, %13
  call void @_ZN5ArrayIhE3AddEm(ptr noundef nonnull align 8 dereferenceable(32) %5, i64 noundef %14)
  br label %18

15:                                               ; preds = %2
  %16 = load i64, ptr %4, align 8
  %17 = getelementptr inbounds %class.Array, ptr %5, i32 0, i32 1
  store i64 %16, ptr %17, align 8
  br label %18

18:                                               ; preds = %15, %10
  ret void
}

; Function Attrs: mustprogress uwtable
define void @_ZN10FileHeader5ResetEm(ptr noundef nonnull align 8 dereferenceable(17184) %0, i64 noundef %1) #0 align 2 {
  %3 = alloca ptr, align 8
  %4 = alloca i64, align 8
  store ptr %0, ptr %3, align 8
  store i64 %1, ptr %4, align 8
  %5 = load ptr, ptr %3, align 8
  %6 = getelementptr inbounds %struct.FileHeader, ptr %5, i32 0, i32 6
  %7 = load i64, ptr %4, align 8
  call void @_ZN5ArrayIhE5AllocEm(ptr noundef nonnull align 8 dereferenceable(32) %6, i64 noundef %7)
  call void @_ZN9BaseBlock5ResetEv(ptr noundef nonnull align 4 dereferenceable(20) %5)
  %8 = getelementptr inbounds %struct.FileHeader, ptr %5, i32 0, i32 13
  call void @_ZN9HashValue4InitE9HASH_TYPE(ptr noundef nonnull align 4 dereferenceable(36) %8, i32 noundef 0)
  %9 = getelementptr inbounds %struct.FileHeader, ptr %5, i32 0, i32 7
  call void @_ZN7RarTime5ResetEv(ptr noundef nonnull align 8 dereferenceable(8) %9)
  %10 = getelementptr inbounds %struct.FileHeader, ptr %5, i32 0, i32 9
  call void @_ZN7RarTime5ResetEv(ptr noundef nonnull align 8 dereferenceable(8) %10)
  %11 = getelementptr inbounds %struct.FileHeader, ptr %5, i32 0, i32 8
  call void @_ZN7RarTime5ResetEv(ptr noundef nonnull align 8 dereferenceable(8) %11)
  %12 = getelementptr inbounds %struct.FileHeader, ptr %5, i32 0, i32 15
  store i8 0, ptr %12, align 8
  %13 = getelementptr inbounds %struct.FileHeader, ptr %5, i32 0, i32 16
  store i8 0, ptr %13, align 1
  %14 = getelementptr inbounds %struct.FileHeader, ptr %5, i32 0, i32 17
  store i8 0, ptr %14, align 2
  %15 = getelementptr inbounds %struct.FileHeader, ptr %5, i32 0, i32 4
  store i32 0, ptr %15, align 4
  %16 = getelementptr inbounds %struct.FileHeader, ptr %5, i32 0, i32 19
  store i32 0, ptr %16, align 4
  %17 = getelementptr inbounds %struct.FileHeader, ptr %5, i32 0, i32 18
  store i8 0, ptr %17, align 1
  %18 = getelementptr inbounds %struct.FileHeader, ptr %5, i32 0, i32 20
  store i8 0, ptr %18, align 8
  %19 = getelementptr inbounds %struct.FileHeader, ptr %5, i32 0, i32 23
  store i8 0, ptr %19, align 1
  %20 = getelementptr inbounds %struct.FileHeader, ptr %5, i32 0, i32 25
  store i8 0, ptr %20, align 2
  %21 = getelementptr inbounds %struct.FileHeader, ptr %5, i32 0, i32 27
  store i32 0, ptr %21, align 4
  %22 = getelementptr inbounds %struct.FileHeader, ptr %5, i32 0, i32 28
  store i8 0, ptr %22, align 8
  %23 = getelementptr inbounds %struct.FileHeader, ptr %5, i32 0, i32 29
  store i8 0, ptr %23, align 1
  %24 = getelementptr inbounds %struct.FileHeader, ptr %5, i32 0, i32 32
  store i64 0, ptr %24, align 8
  %25 = getelementptr inbounds %struct.FileHeader, ptr %5, i32 0, i32 33
  store i8 0, ptr %25, align 8
  %26 = getelementptr inbounds %struct.FileHeader, ptr %5, i32 0, i32 35
  store i8 0, ptr %26, align 2
  %27 = getelementptr inbounds %struct.FileHeader, ptr %5, i32 0, i32 30
  store i8 0, ptr %27, align 2
  %28 = getelementptr inbounds %struct.FileHeader, ptr %5, i32 0, i32 31
  store i8 0, ptr %28, align 1
  %29 = getelementptr inbounds %struct.FileHeader, ptr %5, i32 0, i32 34
  store i8 0, ptr %29, align 1
  %30 = getelementptr inbounds %struct.FileHeader, ptr %5, i32 0, i32 37
  store i32 0, ptr %30, align 8
  %31 = getelementptr inbounds %struct.FileHeader, ptr %5, i32 0, i32 39
  store i8 0, ptr %31, align 4
  %32 = getelementptr inbounds %struct.FileHeader, ptr %5, i32 0, i32 40
  store i8 0, ptr %32, align 1
  ret void
}