; Function Attrs: mustprogress uwtable
define void @_ZN10FileHeader5ResetEm(ptr noundef nonnull align 8 dereferenceable(17184) initializes((16, 17), (8240, 8248)) %0, i64 noundef %1) local_unnamed_addr #0 align 2 {
  %3 = getelementptr inbounds nuw i8, ptr %0, i64 8232
  %4 = getelementptr inbounds nuw i8, ptr %0, i64 8248
  %5 = load i64, ptr %4, align 8
  %6 = icmp ugt i64 %1, %5
  %7 = getelementptr inbounds nuw i8, ptr %0, i64 8240
  store i64 %1, ptr %7, align 8
  br i1 %6, label %8, label %_ZN5ArrayIhE5AllocEm.exit

8:                                                ; preds = %2
  %9 = getelementptr inbounds nuw i8, ptr %0, i64 8256
  %10 = load i64, ptr %9, align 8
  %.not.i.i = icmp ne i64 %10, 0
  %11 = icmp ugt i64 %1, %10
  %or.cond.i.i = and i1 %.not.i.i, %11
  br i1 %or.cond.i.i, label %12, label %13

12:                                               ; preds = %8
  tail call void (ptr, ptr, ...) @_ZN12ErrorHandler13GeneralErrMsgEPKwz(ptr noundef nonnull align 4 dereferenceable(14) @ErrHandler, ptr noundef nonnull @.str, i64 noundef %10)
  tail call void @_ZN12ErrorHandler11MemoryErrorEv(ptr noundef nonnull align 4 dereferenceable(14) @ErrHandler)
  %.pre.i.i = load i64, ptr %4, align 8
  %.pre10.i.i = load i64, ptr %7, align 8
  br label %13

13:                                               ; preds = %12, %8
  %14 = phi i64 [ %.pre10.i.i, %12 ], [ %1, %8 ]
  %15 = phi i64 [ %.pre.i.i, %12 ], [ %5, %8 ]
  %16 = lshr i64 %15, 2
  %17 = add i64 %15, 32
  %18 = add i64 %17, %16
  %..i.i = tail call i64 @llvm.umax.i64(i64 %14, i64 %18)
  %19 = load ptr, ptr %3, align 8
  %20 = tail call ptr @realloc(ptr noundef %19, i64 noundef %..i.i) #9
  %21 = icmp eq ptr %20, null
  br i1 %21, label %22, label %_ZN5ArrayIhE3AddEm.exit.i

22:                                               ; preds = %13
  tail call void @_ZN12ErrorHandler11MemoryErrorEv(ptr noundef nonnull align 4 dereferenceable(14) @ErrHandler)
  br label %_ZN5ArrayIhE3AddEm.exit.i

_ZN5ArrayIhE3AddEm.exit.i:                        ; preds = %22, %13
  store ptr %20, ptr %3, align 8
  store i64 %..i.i, ptr %4, align 8
  br label %_ZN5ArrayIhE5AllocEm.exit

_ZN5ArrayIhE5AllocEm.exit:                        ; preds = %2, %_ZN5ArrayIhE3AddEm.exit.i
  %23 = getelementptr inbounds nuw i8, ptr %0, i64 16
  store i8 0, ptr %23, align 8
  %24 = getelementptr inbounds nuw i8, ptr %0, i64 8312
  tail call void @_ZN9HashValue4InitE9HASH_TYPE(ptr noundef nonnull align 4 dereferenceable(36) %24, i32 noundef 0)
  %25 = getelementptr inbounds nuw i8, ptr %0, i64 8264
  %26 = getelementptr inbounds nuw i8, ptr %0, i64 8352
  %27 = getelementptr inbounds nuw i8, ptr %0, i64 36
  store i32 0, ptr %27, align 4
  %28 = getelementptr inbounds nuw i8, ptr %0, i64 8393
  store i8 0, ptr %28, align 1
  %29 = getelementptr inbounds nuw i8, ptr %0, i64 8402
  store i8 0, ptr %29, align 2
  %30 = getelementptr inbounds nuw i8, ptr %0, i64 8436
  %31 = getelementptr inbounds nuw i8, ptr %0, i64 8448
  %32 = getelementptr inbounds nuw i8, ptr %0, i64 8464
  store i32 0, ptr %32, align 8
  %33 = getelementptr inbounds nuw i8, ptr %0, i64 16660
  store i8 0, ptr %33, align 4
  %34 = getelementptr inbounds nuw i8, ptr %0, i64 16661
  store i8 0, ptr %34, align 1
  tail call void @llvm.memset.p0.i64(ptr noundef nonnull align 8 dereferenceable(24) %25, i8 0, i64 24, i1 false)
  tail call void @llvm.memset.p0.i64(ptr noundef nonnull align 8 dereferenceable(9) %26, i8 0, i64 9, i1 false)
  store i64 0, ptr %30, align 4
  tail call void @llvm.memset.p0.i64(ptr noundef nonnull align 8 dereferenceable(11) %31, i8 0, i64 11, i1 false)
  ret void
}